target datalayout = "e-m:e-p270:32:32-p271:32:32-p272:64:64-i64:64-i128:128-f80:128-n8:16:32:64-S128"
target triple = "x86_64-unknown-linux-gnu"

%"class.array::solver" = type { %"class.euf::th_euf_solver.base", %class.array_util, %"struct.array::solver::stats", %class.scoped_ptr_vector, %class.ast2ast_trailmap, %class.ast2ast_trailmap.12, %class.obj_map.23, %class.union_find, %"struct.array::solver::axiom_record::hash", %"struct.array::solver::axiom_record::eq", %class.hashtable, %class.svector.30, i32, i32, i8, %class.scoped_ptr, %class.ptr_vector, %class.ptr_vector.32, %class.svector.34, %class.obj_map.36, %class.ptr_vector, %class.ptr_vector.41 }
%"class.euf::th_euf_solver.base" = type <{ %"class.euf::th_solver", ptr, %class.ptr_vector, %class.svector.1, i32 }>
%"class.euf::th_solver" = type { %"class.sat::extension", %"class.euf::th_model_builder", %"class.euf::th_decompile", %"class.euf::th_internalizer", ptr }
%"class.sat::extension" = type { ptr, i8, i32, %class.symbol, ptr }
%class.symbol = type { ptr }
%"class.euf::th_model_builder" = type { ptr }
%"class.euf::th_decompile" = type { ptr }
%"class.euf::th_internalizer" = type { ptr, %class.ptr_vector, %class.svector }
%class.svector = type { %class.vector.0 }
%class.vector.0 = type { ptr }
%class.svector.1 = type { %class.vector.2 }
%class.vector.2 = type { ptr }
%class.array_util = type { %class.array_recognizers, ptr }
%class.array_recognizers = type { i32 }
%"struct.array::solver::stats" = type { i32, i32, i32, i32, i32, i32, i32, i32, i32, i32, i32, i32, i32, i32 }
%class.scoped_ptr_vector = type { %class.ptr_vector.3 }
%class.ptr_vector.3 = type { %class.vector.4 }
%class.vector.4 = type { ptr }
%class.ast2ast_trailmap = type { %class.ref_vector, %class.ref_vector.7, %class.obj_map }
%class.ref_vector = type { %class.ref_vector_core }
%class.ref_vector_core = type { %class.ref_manager_wrapper, %class.ptr_vector.5 }
%class.ref_manager_wrapper = type { ptr }
%class.ptr_vector.5 = type { %class.vector.6 }
%class.vector.6 = type { ptr }
%class.ref_vector.7 = type { %class.ref_vector_core.8 }
%class.ref_vector_core.8 = type { %class.ref_manager_wrapper.9, %class.ptr_vector.10 }
%class.ref_manager_wrapper.9 = type { ptr }
%class.ptr_vector.10 = type { %class.vector.11 }
%class.vector.11 = type { ptr }
%class.obj_map = type { %class.core_hashtable }
%class.core_hashtable = type <{ ptr, i32, i32, i32, [4 x i8] }>
%class.ast2ast_trailmap.12 = type { %class.ref_vector, %class.ref_vector.13, %class.obj_map.18 }
%class.ref_vector.13 = type { %class.ref_vector_core.14 }
%class.ref_vector_core.14 = type { %class.ref_manager_wrapper.15, %class.ptr_vector.16 }
%class.ref_manager_wrapper.15 = type { ptr }
%class.ptr_vector.16 = type { %class.vector.17 }
%class.vector.17 = type { ptr }
%class.obj_map.18 = type { %class.core_hashtable.19 }
%class.core_hashtable.19 = type <{ ptr, i32, i32, i32, [4 x i8] }>
%class.obj_map.23 = type { %class.core_hashtable.24 }
%class.core_hashtable.24 = type <{ ptr, i32, i32, i32, [4 x i8] }>
%class.union_find = type { ptr, ptr, %class.svector.1, %class.svector.1, %class.svector.1, %"class.union_find<array::solver, euf::solver>::mk_var_trail" }
%"class.union_find<array::solver, euf::solver>::mk_var_trail" = type { %class.trail, ptr }
%class.trail = type { ptr }
%"struct.array::solver::axiom_record::hash" = type { ptr }
%"struct.array::solver::axiom_record::eq" = type { ptr }
%class.hashtable = type { %class.core_hashtable.base.29, [4 x i8] }
%class.core_hashtable.base.29 = type <{ %"struct.array::solver::axiom_record::hash", %"struct.array::solver::axiom_record::eq", ptr, i32, i32, i32 }>
%class.svector.30 = type { %class.vector.31 }
%class.vector.31 = type { ptr }
%class.scoped_ptr = type { ptr }
%class.ptr_vector.32 = type { %class.vector.33 }
%class.vector.33 = type { ptr }
%class.svector.34 = type { %class.vector.35 }
%class.vector.35 = type { ptr }
%class.obj_map.36 = type { %class.core_hashtable.37 }
%class.core_hashtable.37 = type <{ ptr, i32, i32, i32, [4 x i8] }>
%class.ptr_vector = type { %class.vector }
%class.vector = type { ptr }
%class.ptr_vector.41 = type { %class.vector.42 }
%class.vector.42 = type { ptr }

; Function Attrs: mustprogress nounwind uwtable
define linkonce_odr hidden noundef nonnull align 8 dereferenceable(8) ptr @_ZN6vectorIPN3euf5enodeELb0EjEixEj(ptr noundef nonnull align 8 dereferenceable(8) %this, i32 noundef %idx) #4 comdat align 2 {
entry:
  %this.addr = alloca ptr, align 8
  %idx.addr = alloca i32, align 4
  store ptr %this, ptr %this.addr, align 8
  store i32 %idx, ptr %idx.addr, align 4
  %this1 = load ptr, ptr %this.addr, align 8
  %m_data = getelementptr inbounds %class.vector, ptr %this1, i32 0, i32 0
  %0 = load ptr, ptr %m_data, align 8
  %1 = load i32, ptr %idx.addr, align 4
  %idxprom = zext i32 %1 to i64
  %arrayidx = getelementptr inbounds ptr, ptr %0, i64 %idxprom
  ret ptr %arrayidx
}

; Function Attrs: mustprogress nounwind uwtable
define linkonce_odr void @_ZSt4swapIiENSt9enable_ifIXsr6__and_ISt6__not_ISt15__is_tuple_likeIT_EESt21is_move_constructibleIS3_ESt18is_move_assignableIS3_EEE5valueEvE4typeERS3_SC_(ptr noundef nonnull align 4 dereferenceable(4) %__a, ptr noundef nonnull align 4 dereferenceable(4) %__b) #4 comdat {
entry:
  %__a.addr = alloca ptr, align 8
  %__b.addr = alloca ptr, align 8
  %__tmp = alloca i32, align 4
  store ptr %__a, ptr %__a.addr, align 8
  store ptr %__b, ptr %__b.addr, align 8
  %0 = load ptr, ptr %__a.addr, align 8
  %1 = load i32, ptr %0, align 4
  store i32 %1, ptr %__tmp, align 4
  %2 = load ptr, ptr %__b.addr, align 8
  %3 = load i32, ptr %2, align 4
  %4 = load ptr, ptr %__a.addr, align 8
  store i32 %3, ptr %4, align 4
  %5 = load i32, ptr %__tmp, align 4
  %6 = load ptr, ptr %__b.addr, align 8
  store i32 %5, ptr %6, align 4
  ret void
}

; Function Attrs: mustprogress nounwind uwtable
define linkonce_odr hidden noundef nonnull align 4 dereferenceable(4) ptr @_ZN6vectorIiLb0EjEixEj(ptr noundef nonnull align 8 dereferenceable(8) %this, i32 noundef %idx) #4 comdat align 2 {
entry:
  %this.addr = alloca ptr, align 8
  %idx.addr = alloca i32, align 4
  store ptr %this, ptr %this.addr, align 8
  store i32 %idx, ptr %idx.addr, align 4
  %this1 = load ptr, ptr %this.addr, align 8
  %m_data = getelementptr inbounds %class.vector.35, ptr %this1, i32 0, i32 0
  %0 = load ptr, ptr %m_data, align 8
  %1 = load i32, ptr %idx.addr, align 4
  %idxprom = zext i32 %1 to i64
  %arrayidx = getelementptr inbounds i32, ptr %0, i64 %idxprom
  ret ptr %arrayidx
}

; Function Attrs: mustprogress uwtable
define hidden noundef i32 @_ZN5array6solver7mg_findEi(ptr noundef nonnull align 8 dereferenceable(536) %this, i32 noundef %n) #5 align 2 {
entry:
  %retval = alloca i32, align 4
  %this.addr = alloca ptr, align 8
  %n.addr = alloca i32, align 4
  %n0 = alloca i32, align 4
  %n1 = alloca i32, align 4
  store ptr %this, ptr %this.addr, align 8
  store i32 %n, ptr %n.addr, align 4
  %this1 = load ptr, ptr %this.addr, align 8
  %m_parents = getelementptr inbounds %"class.array::solver", ptr %this1, i32 0, i32 18
  %0 = load i32, ptr %n.addr, align 4
  %call = call noundef nonnull align 4 dereferenceable(4) ptr @_ZN6vectorIiLb0EjEixEj(ptr noundef nonnull align 8 dereferenceable(8) %m_parents, i32 noundef %0)
  %1 = load i32, ptr %call, align 4
  %cmp = icmp slt i32 %1, 0
  br i1 %cmp, label %if.then, label %if.end

if.then:                                          ; preds = %entry
  %2 = load i32, ptr %n.addr, align 4
  store i32 %2, ptr %retval, align 4
  br label %return

if.end:                                           ; preds = %entry
  %3 = load i32, ptr %n.addr, align 4
  store i32 %3, ptr %n0, align 4
  %m_parents2 = getelementptr inbounds %"class.array::solver", ptr %this1, i32 0, i32 18
  %4 = load i32, ptr %n0, align 4
  %call3 = call noundef nonnull align 4 dereferenceable(4) ptr @_ZN6vectorIiLb0EjEixEj(ptr noundef nonnull align 8 dereferenceable(8) %m_parents2, i32 noundef %4)
  %5 = load i32, ptr %call3, align 4
  store i32 %5, ptr %n.addr, align 4
  %m_parents4 = getelementptr inbounds %"class.array::solver", ptr %this1, i32 0, i32 18
  %6 = load i32, ptr %n.addr, align 4
  %call5 = call noundef nonnull align 4 dereferenceable(4) ptr @_ZN6vectorIiLb0EjEixEj(ptr noundef nonnull align 8 dereferenceable(8) %m_parents4, i32 noundef %6)
  %7 = load i32, ptr %call5, align 4
  %cmp6 = icmp slt i32 %7, -1
  br i1 %cmp6, label %if.then7, label %if.end8

if.then7:                                         ; preds = %if.end
  %8 = load i32, ptr %n.addr, align 4
  store i32 %8, ptr %retval, align 4
  br label %return

if.end8:                                          ; preds = %if.end
  br label %while.cond

while.cond:                                       ; preds = %while.body, %if.end8
  %m_parents9 = getelementptr inbounds %"class.array::solver", ptr %this1, i32 0, i32 18
  %9 = load i32, ptr %n.addr, align 4
  %call10 = call noundef nonnull align 4 dereferenceable(4) ptr @_ZN6vectorIiLb0EjEixEj(ptr noundef nonnull align 8 dereferenceable(8) %m_parents9, i32 noundef %9)
  %10 = load i32, ptr %call10, align 4
  %cmp11 = icmp sge i32 %10, 0
  br i1 %cmp11, label %while.body, label %while.end

while.body:                                       ; preds = %while.cond
  %m_parents12 = getelementptr inbounds %"class.array::solver", ptr %this1, i32 0, i32 18
  %11 = load i32, ptr %n.addr, align 4
  %call13 = call noundef nonnull align 4 dereferenceable(4) ptr @_ZN6vectorIiLb0EjEixEj(ptr noundef nonnull align 8 dereferenceable(8) %m_parents12, i32 noundef %11)
  %12 = load i32, ptr %call13, align 4
  store i32 %12, ptr %n.addr, align 4
  br label %while.cond, !llvm.loop !21

while.end:                                        ; preds = %while.cond
  br label %while.cond14

while.cond14:                                     ; preds = %while.body18, %while.end
  %m_parents15 = getelementptr inbounds %"class.array::solver", ptr %this1, i32 0, i32 18
  %13 = load i32, ptr %n0, align 4
  %call16 = call noundef nonnull align 4 dereferenceable(4) ptr @_ZN6vectorIiLb0EjEixEj(ptr noundef nonnull align 8 dereferenceable(8) %m_parents15, i32 noundef %13)
  %14 = load i32, ptr %call16, align 4
  %cmp17 = icmp sge i32 %14, 0
  br i1 %cmp17, label %while.body18, label %while.end23

while.body18:                                     ; preds = %while.cond14
  %m_parents19 = getelementptr inbounds %"class.array::solver", ptr %this1, i32 0, i32 18
  %15 = load i32, ptr %n0, align 4
  %call20 = call noundef nonnull align 4 dereferenceable(4) ptr @_ZN6vectorIiLb0EjEixEj(ptr noundef nonnull align 8 dereferenceable(8) %m_parents19, i32 noundef %15)
  %16 = load i32, ptr %call20, align 4
  store i32 %16, ptr %n1, align 4
  %17 = load i32, ptr %n.addr, align 4
  %m_parents21 = getelementptr inbounds %"class.array::solver", ptr %this1, i32 0, i32 18
  %18 = load i32, ptr %n0, align 4
  %call22 = call noundef nonnull align 4 dereferenceable(4) ptr @_ZN6vectorIiLb0EjEixEj(ptr noundef nonnull align 8 dereferenceable(8) %m_parents21, i32 noundef %18)
  store i32 %17, ptr %call22, align 4
  %19 = load i32, ptr %n1, align 4
  store i32 %19, ptr %n0, align 4
  br label %while.cond14, !llvm.loop !22

while.end23:                                      ; preds = %while.cond14
  %20 = load i32, ptr %n.addr, align 4
  store i32 %20, ptr %retval, align 4
  br label %return

return:                                           ; preds = %while.end23, %if.then7, %if.then
  %21 = load i32, ptr %retval, align 4
  ret i32 %21
}

; Function Attrs: mustprogress uwtable
define hidden void @_ZN5array6solver8mg_mergeEii(ptr noundef nonnull align 8 dereferenceable(536) %this, i32 noundef %u, i32 noundef %v) #5 align 2 {
entry:
  %this.addr = alloca ptr, align 8
  %u.addr = alloca i32, align 4
  %v.addr = alloca i32, align 4
  store ptr %this, ptr %this.addr, align 8
  store i32 %u, ptr %u.addr, align 4
  store i32 %v, ptr %v.addr, align 4
  %this1 = load ptr, ptr %this.addr, align 8
  %0 = load i32, ptr %u.addr, align 4
  %call = call noundef i32 @_ZN5array6solver7mg_findEi(ptr noundef nonnull align 8 dereferenceable(536) %this1, i32 noundef %0)
  store i32 %call, ptr %u.addr, align 4
  %1 = load i32, ptr %v.addr, align 4
  %call2 = call noundef i32 @_ZN5array6solver7mg_findEi(ptr noundef nonnull align 8 dereferenceable(536) %this1, i32 noundef %1)
  store i32 %call2, ptr %v.addr, align 4
  %2 = load i32, ptr %u.addr, align 4
  %3 = load i32, ptr %v.addr, align 4
  %cmp = icmp ne i32 %2, %3
  br i1 %cmp, label %if.then, label %if.end21

if.then:                                          ; preds = %entry
  %m_parents = getelementptr inbounds %"class.array::solver", ptr %this1, i32 0, i32 18
  %4 = load i32, ptr %u.addr, align 4
  %call3 = call noundef nonnull align 4 dereferenceable(4) ptr @_ZN6vectorIiLb0EjEixEj(ptr noundef nonnull align 8 dereferenceable(8) %m_parents, i32 noundef %4)
  %5 = load i32, ptr %call3, align 4
  %m_parents4 = getelementptr inbounds %"class.array::solver", ptr %this1, i32 0, i32 18
  %6 = load i32, ptr %v.addr, align 4
  %call5 = call noundef nonnull align 4 dereferenceable(4) ptr @_ZN6vectorIiLb0EjEixEj(ptr noundef nonnull align 8 dereferenceable(8) %m_parents4, i32 noundef %6)
  %7 = load i32, ptr %call5, align 4
  %cmp6 = icmp sgt i32 %5, %7
  br i1 %cmp6, label %if.then7, label %if.end

if.then7:                                         ; preds = %if.then
  call void @_ZSt4swapIiENSt9enable_ifIXsr6__and_ISt6__not_ISt15__is_tuple_likeIT_EESt21is_move_constructibleIS3_ESt18is_move_assignableIS3_EEE5valueEvE4typeERS3_SC_(ptr noundef nonnull align 4 dereferenceable(4) %u.addr, ptr noundef nonnull align 4 dereferenceable(4) %v.addr) #3
  br label %if.end

if.end:                                           ; preds = %if.then7, %if.then
  %m_parents8 = getelementptr inbounds %"class.array::solver", ptr %this1, i32 0, i32 18
  %8 = load i32, ptr %v.addr, align 4
  %call9 = call noundef nonnull align 4 dereferenceable(4) ptr @_ZN6vectorIiLb0EjEixEj(ptr noundef nonnull align 8 dereferenceable(8) %m_parents8, i32 noundef %8)
  %9 = load i32, ptr %call9, align 4
  %m_parents10 = getelementptr inbounds %"class.array::solver", ptr %this1, i32 0, i32 18
  %10 = load i32, ptr %u.addr, align 4
  %call11 = call noundef nonnull align 4 dereferenceable(4) ptr @_ZN6vectorIiLb0EjEixEj(ptr noundef nonnull align 8 dereferenceable(8) %m_parents10, i32 noundef %10)
  %11 = load i32, ptr %call11, align 4
  %add = add nsw i32 %11, %9
  store i32 %add, ptr %call11, align 4
  %12 = load i32, ptr %u.addr, align 4
  %m_parents12 = getelementptr inbounds %"class.array::solver", ptr %this1, i32 0, i32 18
  %13 = load i32, ptr %v.addr, align 4
  %call13 = call noundef nonnull align 4 dereferenceable(4) ptr @_ZN6vectorIiLb0EjEixEj(ptr noundef nonnull align 8 dereferenceable(8) %m_parents12, i32 noundef %13)
  store i32 %12, ptr %call13, align 4
  %m_defaults = getelementptr inbounds %"class.array::solver", ptr %this1, i32 0, i32 16
  %14 = load i32, ptr %u.addr, align 4
  %call14 = call noundef nonnull align 8 dereferenceable(8) ptr @_ZN6vectorIPN3euf5enodeELb0EjEixEj(ptr noundef nonnull align 8 dereferenceable(8) %m_defaults, i32 noundef %14)
  %15 = load ptr, ptr %call14, align 8
  %tobool = icmp ne ptr %15, null
  br i1 %tobool, label %if.end20, label %if.then15

if.then15:                                        ; preds = %if.end
  %m_defaults16 = getelementptr inbounds %"class.array::solver", ptr %this1, i32 0, i32 16
  %16 = load i32, ptr %v.addr, align 4
  %call17 = call noundef nonnull align 8 dereferenceable(8) ptr @_ZN6vectorIPN3euf5enodeELb0EjEixEj(ptr noundef nonnull align 8 dereferenceable(8) %m_defaults16, i32 noundef %16)
  %17 = load ptr, ptr %call17, align 8
  %m_defaults18 = getelementptr inbounds %"class.array::solver", ptr %this1, i32 0, i32 16
  %18 = load i32, ptr %u.addr, align 4
  %call19 = call noundef nonnull align 8 dereferenceable(8) ptr @_ZN6vectorIPN3euf5enodeELb0EjEixEj(ptr noundef nonnull align 8 dereferenceable(8) %m_defaults18, i32 noundef %18)
  store ptr %17, ptr %call19, align 8
  br label %if.end20

if.end20:                                         ; preds = %if.then15, %if.end
  br label %if.end21

if.end21:                                         ; preds = %if.end20, %entry
  ret void
}