; Function Attrs: mustprogress nofree norecurse nosync nounwind memory(readwrite, inaccessiblemem: none) uwtable
define hidden void @_ZN5array6solver8mg_mergeEii(ptr nocapture noundef nonnull readonly align 8 dereferenceable(536) %this, i32 noundef %u, i32 noundef %v) local_unnamed_addr #5 align 2 {
entry:
  %m_parents.i = getelementptr inbounds i8, ptr %this, i64 488
  %0 = load ptr, ptr %m_parents.i, align 8
  %idxprom.i.i = zext i32 %u to i64
  %arrayidx.i.i = getelementptr inbounds i32, ptr %0, i64 %idxprom.i.i
  %1 = load i32, ptr %arrayidx.i.i, align 4
  %cmp.i = icmp slt i32 %1, 0
  br i1 %cmp.i, label %_ZN5array6solver7mg_findEi.exit, label %if.end.i

if.end.i:                                         ; preds = %entry
  %idxprom.i14.i = zext nneg i32 %1 to i64
  %arrayidx.i15.i = getelementptr inbounds i32, ptr %0, i64 %idxprom.i14.i
  %2 = load i32, ptr %arrayidx.i15.i, align 4
  %cmp6.i = icmp slt i32 %2, -1
  br i1 %cmp6.i, label %_ZN5array6solver7mg_findEi.exit, label %while.cond.i

while.cond.i:                                     ; preds = %if.end.i, %while.cond.i
  %n.addr.0.i = phi i32 [ %3, %while.cond.i ], [ %1, %if.end.i ]
  %idxprom.i16.i = zext nneg i32 %n.addr.0.i to i64
  %arrayidx.i17.i = getelementptr inbounds i32, ptr %0, i64 %idxprom.i16.i
  %3 = load i32, ptr %arrayidx.i17.i, align 4
  %cmp11.i = icmp sgt i32 %3, -1
  br i1 %cmp11.i, label %while.cond.i, label %while.body18.i, !llvm.loop !8

while.body18.i:                                   ; preds = %while.cond.i, %while.body18.i
  %4 = phi i32 [ %6, %while.body18.i ], [ %1, %while.cond.i ]
  %arrayidx.i2129.i = phi ptr [ %arrayidx.i21.i, %while.body18.i ], [ %arrayidx.i.i, %while.cond.i ]
  store i32 %n.addr.0.i, ptr %arrayidx.i2129.i, align 4
  %5 = load ptr, ptr %m_parents.i, align 8
  %idxprom.i20.i = zext nneg i32 %4 to i64
  %arrayidx.i21.i = getelementptr inbounds i32, ptr %5, i64 %idxprom.i20.i
  %6 = load i32, ptr %arrayidx.i21.i, align 4
  %cmp17.i = icmp sgt i32 %6, -1
  br i1 %cmp17.i, label %while.body18.i, label %_ZN5array6solver7mg_findEi.exit, !llvm.loop !9

_ZN5array6solver7mg_findEi.exit:                  ; preds = %while.body18.i, %entry, %if.end.i
  %7 = phi ptr [ %0, %entry ], [ %0, %if.end.i ], [ %5, %while.body18.i ]
  %retval.0.i = phi i32 [ %u, %entry ], [ %1, %if.end.i ], [ %n.addr.0.i, %while.body18.i ]
  %idxprom.i.i2 = zext i32 %v to i64
  %arrayidx.i.i3 = getelementptr inbounds i32, ptr %7, i64 %idxprom.i.i2
  %8 = load i32, ptr %arrayidx.i.i3, align 4
  %cmp.i4 = icmp slt i32 %8, 0
  br i1 %cmp.i4, label %_ZN5array6solver7mg_findEi.exit21, label %if.end.i5

if.end.i5:                                        ; preds = %_ZN5array6solver7mg_findEi.exit
  %idxprom.i14.i6 = zext nneg i32 %8 to i64
  %arrayidx.i15.i7 = getelementptr inbounds i32, ptr %7, i64 %idxprom.i14.i6
  %9 = load i32, ptr %arrayidx.i15.i7, align 4
  %cmp6.i8 = icmp slt i32 %9, -1
  br i1 %cmp6.i8, label %_ZN5array6solver7mg_findEi.exit21, label %while.cond.i9

while.cond.i9:                                    ; preds = %if.end.i5, %while.cond.i9
  %n.addr.0.i10 = phi i32 [ %10, %while.cond.i9 ], [ %8, %if.end.i5 ]
  %idxprom.i16.i11 = zext nneg i32 %n.addr.0.i10 to i64
  %arrayidx.i17.i12 = getelementptr inbounds i32, ptr %7, i64 %idxprom.i16.i11
  %10 = load i32, ptr %arrayidx.i17.i12, align 4
  %cmp11.i13 = icmp sgt i32 %10, -1
  br i1 %cmp11.i13, label %while.cond.i9, label %while.body18.i15, !llvm.loop !8

while.body18.i15:                                 ; preds = %while.cond.i9, %while.body18.i15
  %11 = phi i32 [ %13, %while.body18.i15 ], [ %8, %while.cond.i9 ]
  %arrayidx.i2129.i16 = phi ptr [ %arrayidx.i21.i18, %while.body18.i15 ], [ %arrayidx.i.i3, %while.cond.i9 ]
  store i32 %n.addr.0.i10, ptr %arrayidx.i2129.i16, align 4
  %12 = load ptr, ptr %m_parents.i, align 8
  %idxprom.i20.i17 = zext nneg i32 %11 to i64
  %arrayidx.i21.i18 = getelementptr inbounds i32, ptr %12, i64 %idxprom.i20.i17
  %13 = load i32, ptr %arrayidx.i21.i18, align 4
  %cmp17.i19 = icmp sgt i32 %13, -1
  br i1 %cmp17.i19, label %while.body18.i15, label %_ZN5array6solver7mg_findEi.exit21, !llvm.loop !9

_ZN5array6solver7mg_findEi.exit21:                ; preds = %while.body18.i15, %_ZN5array6solver7mg_findEi.exit, %if.end.i5
  %14 = phi ptr [ %7, %_ZN5array6solver7mg_findEi.exit ], [ %7, %if.end.i5 ], [ %12, %while.body18.i15 ]
  %retval.0.i20 = phi i32 [ %v, %_ZN5array6solver7mg_findEi.exit ], [ %8, %if.end.i5 ], [ %n.addr.0.i10, %while.body18.i15 ]
  %cmp.not = icmp eq i32 %retval.0.i, %retval.0.i20
  br i1 %cmp.not, label %if.end21, label %if.then

if.then:                                          ; preds = %_ZN5array6solver7mg_findEi.exit21
  %idxprom.i = zext i32 %retval.0.i to i64
  %arrayidx.i = getelementptr inbounds i32, ptr %14, i64 %idxprom.i
  %15 = load i32, ptr %arrayidx.i, align 4
  %idxprom.i22 = zext i32 %retval.0.i20 to i64
  %arrayidx.i23 = getelementptr inbounds i32, ptr %14, i64 %idxprom.i22
  %16 = load i32, ptr %arrayidx.i23, align 4
  %cmp6 = icmp sgt i32 %15, %16
  %spec.select = select i1 %cmp6, i32 %retval.0.i20, i32 %retval.0.i
  %spec.select46 = select i1 %cmp6, i32 %retval.0.i, i32 %retval.0.i20
  %idxprom.i24 = zext i32 %spec.select46 to i64
  %arrayidx.i25 = getelementptr inbounds i32, ptr %14, i64 %idxprom.i24
  %17 = load i32, ptr %arrayidx.i25, align 4
  %idxprom.i26 = zext i32 %spec.select to i64
  %arrayidx.i27 = getelementptr inbounds i32, ptr %14, i64 %idxprom.i26
  %18 = load i32, ptr %arrayidx.i27, align 4
  %add = add nsw i32 %18, %17
  store i32 %add, ptr %arrayidx.i27, align 4
  %19 = load ptr, ptr %m_parents.i, align 8
  %arrayidx.i29 = getelementptr inbounds i32, ptr %19, i64 %idxprom.i24
  store i32 %spec.select, ptr %arrayidx.i29, align 4
  %m_defaults = getelementptr inbounds i8, ptr %this, i64 472
  %20 = load ptr, ptr %m_defaults, align 8
  %arrayidx.i31 = getelementptr inbounds ptr, ptr %20, i64 %idxprom.i26
  %21 = load ptr, ptr %arrayidx.i31, align 8
  %tobool.not = icmp eq ptr %21, null
  br i1 %tobool.not, label %if.then15, label %if.end21

if.then15:                                        ; preds = %if.then
  %arrayidx.i33 = getelementptr inbounds ptr, ptr %20, i64 %idxprom.i24
  %22 = load ptr, ptr %arrayidx.i33, align 8
  store ptr %22, ptr %arrayidx.i31, align 8
  br label %if.end21

if.end21:                                         ; preds = %if.then, %if.then15, %_ZN5array6solver7mg_findEi.exit21
  ret void
}